; Function Attrs: mustprogress uwtable
define noundef range(i32 -4, 1) i32 @_ZNK10open_spiel6catch_10CatchState13CurrentPlayerEv(ptr noundef nonnull align 8 dereferenceable(84) %0) unnamed_addr #3 align 2 {
  %2 = getelementptr inbounds nuw i8, ptr %0, i64 68
  %3 = load i8, ptr %2, align 4
  %4 = trunc i8 %3 to i1
  br i1 %4, label %5, label %10

5:                                                ; preds = %1
  %6 = load ptr, ptr %0, align 8
  %7 = getelementptr inbounds i8, ptr %6, i64 88
  %8 = load ptr, ptr %7, align 8
  %9 = tail call noundef zeroext i1 %8(ptr noundef nonnull align 8 dereferenceable(84) %0)
  %. = select i1 %9, i32 -4, i32 0
  br label %10

10:                                               ; preds = %5, %1
  %.0 = phi i32 [ -1, %1 ], [ %., %5 ]
  ret i32 %.0
}